target datalayout = "e-m:e-p270:32:32-p271:32:32-p272:64:64-i64:64-i128:128-f80:128-n8:16:32:64-S128"
target triple = "x86_64-pc-linux-gnu"

%struct.Vec_Int_t_ = type { i32, i32, ptr }
%struct.Seg_Man_t_ = type { ptr, i32, i32, i32, i32, i32, i32, i32, i32, i32, i32, ptr, ptr, ptr, ptr, ptr, ptr, ptr, ptr, i64 }

; Function Attrs: inlinehint nounwind uwtable
define internal void @Vec_IntFree(ptr noundef %0) #2 {
  %2 = alloca ptr, align 8
  store ptr %0, ptr %2, align 8, !tbaa !8
  %3 = load ptr, ptr %2, align 8, !tbaa !8
  %4 = getelementptr inbounds nuw %struct.Vec_Int_t_, ptr %3, i32 0, i32 2
  %5 = load ptr, ptr %4, align 8, !tbaa !37
  %6 = icmp ne ptr %5, null
  br i1 %6, label %7, label %13

7:                                                ; preds = %1
  %8 = load ptr, ptr %2, align 8, !tbaa !8
  %9 = getelementptr inbounds nuw %struct.Vec_Int_t_, ptr %8, i32 0, i32 2
  %10 = load ptr, ptr %9, align 8, !tbaa !37
  call void @free(ptr noundef %10) #12
  %11 = load ptr, ptr %2, align 8, !tbaa !8
  %12 = getelementptr inbounds nuw %struct.Vec_Int_t_, ptr %11, i32 0, i32 2
  store ptr null, ptr %12, align 8, !tbaa !37
  br label %14

13:                                               ; preds = %1
  br label %14

14:                                               ; preds = %13, %7
  %15 = load ptr, ptr %2, align 8, !tbaa !8
  %16 = icmp ne ptr %15, null
  br i1 %16, label %17, label %19

17:                                               ; preds = %14
  %18 = load ptr, ptr %2, align 8, !tbaa !8
  call void @free(ptr noundef %18) #12
  store ptr null, ptr %2, align 8, !tbaa !8
  br label %20

19:                                               ; preds = %14
  br label %20

20:                                               ; preds = %19, %17
  ret void
}

; Function Attrs: nounwind uwtable
define void @Seg_ManStop(ptr noundef %0) #0 {
  %2 = alloca ptr, align 8
  store ptr %0, ptr %2, align 8, !tbaa !46
  %3 = load ptr, ptr %2, align 8, !tbaa !46
  %4 = getelementptr inbounds nuw %struct.Seg_Man_t_, ptr %3, i32 0, i32 0
  %5 = load ptr, ptr %4, align 8, !tbaa !68
  call void @sat_solver_delete(ptr noundef %5)
  %6 = load ptr, ptr %2, align 8, !tbaa !46
  %7 = getelementptr inbounds nuw %struct.Seg_Man_t_, ptr %6, i32 0, i32 14
  %8 = load ptr, ptr %7, align 8, !tbaa !64
  call void @Vec_IntFree(ptr noundef %8)
  %9 = load ptr, ptr %2, align 8, !tbaa !46
  %10 = getelementptr inbounds nuw %struct.Seg_Man_t_, ptr %9, i32 0, i32 15
  %11 = load ptr, ptr %10, align 8, !tbaa !48
  call void @Vec_IntFree(ptr noundef %11)
  %12 = load ptr, ptr %2, align 8, !tbaa !46
  %13 = getelementptr inbounds nuw %struct.Seg_Man_t_, ptr %12, i32 0, i32 16
  %14 = load ptr, ptr %13, align 8, !tbaa !52
  call void @Vec_IntFree(ptr noundef %14)
  %15 = load ptr, ptr %2, align 8, !tbaa !46
  %16 = getelementptr inbounds nuw %struct.Seg_Man_t_, ptr %15, i32 0, i32 17
  %17 = load ptr, ptr %16, align 8, !tbaa !70
  call void @Vec_IntFree(ptr noundef %17)
  %18 = load ptr, ptr %2, align 8, !tbaa !46
  %19 = getelementptr inbounds nuw %struct.Seg_Man_t_, ptr %18, i32 0, i32 12
  %20 = load ptr, ptr %19, align 8, !tbaa !62
  call void @Vec_IntFree(ptr noundef %20)
  %21 = load ptr, ptr %2, align 8, !tbaa !46
  %22 = getelementptr inbounds nuw %struct.Seg_Man_t_, ptr %21, i32 0, i32 13
  %23 = load ptr, ptr %22, align 8, !tbaa !63
  call void @Vec_IntFree(ptr noundef %23)
  %24 = load ptr, ptr %2, align 8, !tbaa !46
  %25 = getelementptr inbounds nuw %struct.Seg_Man_t_, ptr %24, i32 0, i32 18
  %26 = load ptr, ptr %25, align 8, !tbaa !53
  %27 = icmp ne ptr %26, null
  br i1 %27, label %28, label %34

28:                                               ; preds = %1
  %29 = load ptr, ptr %2, align 8, !tbaa !46
  %30 = getelementptr inbounds nuw %struct.Seg_Man_t_, ptr %29, i32 0, i32 18
  %31 = load ptr, ptr %30, align 8, !tbaa !53
  call void @free(ptr noundef %31) #12
  %32 = load ptr, ptr %2, align 8, !tbaa !46
  %33 = getelementptr inbounds nuw %struct.Seg_Man_t_, ptr %32, i32 0, i32 18
  store ptr null, ptr %33, align 8, !tbaa !53
  br label %35

34:                                               ; preds = %1
  br label %35

35:                                               ; preds = %34, %28
  %36 = load ptr, ptr %2, align 8, !tbaa !46
  %37 = icmp ne ptr %36, null
  br i1 %37, label %38, label %40

38:                                               ; preds = %35
  %39 = load ptr, ptr %2, align 8, !tbaa !46
  call void @free(ptr noundef %39) #12
  store ptr null, ptr %2, align 8, !tbaa !46
  br label %41

40:                                               ; preds = %35
  br label %41

41:                                               ; preds = %40, %38
  ret void
}