; Function Attrs: nounwind uwtable
define void @Seg_ManStop(ptr noundef captures(none) %0) local_unnamed_addr #0 {
  %2 = load ptr, ptr %0, align 8, !tbaa !61
  tail call void @sat_solver_delete(ptr noundef %2) #17
  %3 = getelementptr inbounds nuw i8, ptr %0, i64 72
  %4 = load ptr, ptr %3, align 8, !tbaa !57
  %5 = getelementptr inbounds nuw i8, ptr %4, i64 8
  %6 = load ptr, ptr %5, align 8, !tbaa !11
  %.not.i = icmp eq ptr %6, null
  br i1 %.not.i, label %Vec_IntFree.exit, label %7

7:                                                ; preds = %1
  tail call void @free(ptr noundef nonnull %6) #17
  br label %Vec_IntFree.exit

Vec_IntFree.exit:                                 ; preds = %1, %7
  tail call void @free(ptr noundef nonnull %4) #17
  %8 = getelementptr inbounds nuw i8, ptr %0, i64 80
  %9 = load ptr, ptr %8, align 8, !tbaa !44
  %10 = getelementptr inbounds nuw i8, ptr %9, i64 8
  %11 = load ptr, ptr %10, align 8, !tbaa !11
  %.not.i12 = icmp eq ptr %11, null
  br i1 %.not.i12, label %Vec_IntFree.exit13, label %12

12:                                               ; preds = %Vec_IntFree.exit
  tail call void @free(ptr noundef nonnull %11) #17
  br label %Vec_IntFree.exit13

Vec_IntFree.exit13:                               ; preds = %Vec_IntFree.exit, %12
  tail call void @free(ptr noundef nonnull %9) #17
  %13 = getelementptr inbounds nuw i8, ptr %0, i64 88
  %14 = load ptr, ptr %13, align 8, !tbaa !48
  %15 = getelementptr inbounds nuw i8, ptr %14, i64 8
  %16 = load ptr, ptr %15, align 8, !tbaa !11
  %.not.i14 = icmp eq ptr %16, null
  br i1 %.not.i14, label %Vec_IntFree.exit15, label %17

17:                                               ; preds = %Vec_IntFree.exit13
  tail call void @free(ptr noundef nonnull %16) #17
  br label %Vec_IntFree.exit15

Vec_IntFree.exit15:                               ; preds = %Vec_IntFree.exit13, %17
  tail call void @free(ptr noundef nonnull %14) #17
  %18 = getelementptr inbounds nuw i8, ptr %0, i64 96
  %19 = load ptr, ptr %18, align 8, !tbaa !85
  %20 = getelementptr inbounds nuw i8, ptr %19, i64 8
  %21 = load ptr, ptr %20, align 8, !tbaa !11
  %.not.i16 = icmp eq ptr %21, null
  br i1 %.not.i16, label %Vec_IntFree.exit17, label %22

22:                                               ; preds = %Vec_IntFree.exit15
  tail call void @free(ptr noundef nonnull %21) #17
  br label %Vec_IntFree.exit17

Vec_IntFree.exit17:                               ; preds = %Vec_IntFree.exit15, %22
  tail call void @free(ptr noundef nonnull %19) #17
  %23 = getelementptr inbounds nuw i8, ptr %0, i64 56
  %24 = load ptr, ptr %23, align 8, !tbaa !55
  %25 = getelementptr inbounds nuw i8, ptr %24, i64 8
  %26 = load ptr, ptr %25, align 8, !tbaa !11
  %.not.i18 = icmp eq ptr %26, null
  br i1 %.not.i18, label %Vec_IntFree.exit19, label %27

27:                                               ; preds = %Vec_IntFree.exit17
  tail call void @free(ptr noundef nonnull %26) #17
  br label %Vec_IntFree.exit19

Vec_IntFree.exit19:                               ; preds = %Vec_IntFree.exit17, %27
  tail call void @free(ptr noundef nonnull %24) #17
  %28 = getelementptr inbounds nuw i8, ptr %0, i64 64
  %29 = load ptr, ptr %28, align 8, !tbaa !56
  %30 = getelementptr inbounds nuw i8, ptr %29, i64 8
  %31 = load ptr, ptr %30, align 8, !tbaa !11
  %.not.i20 = icmp eq ptr %31, null
  br i1 %.not.i20, label %Vec_IntFree.exit21, label %32

32:                                               ; preds = %Vec_IntFree.exit19
  tail call void @free(ptr noundef nonnull %31) #17
  br label %Vec_IntFree.exit21

Vec_IntFree.exit21:                               ; preds = %Vec_IntFree.exit19, %32
  tail call void @free(ptr noundef nonnull %29) #17
  %33 = getelementptr inbounds nuw i8, ptr %0, i64 104
  %34 = load ptr, ptr %33, align 8, !tbaa !49
  %.not = icmp eq ptr %34, null
  br i1 %.not, label %36, label %35

35:                                               ; preds = %Vec_IntFree.exit21
  tail call void @free(ptr noundef nonnull %34) #17
  br label %36

36:                                               ; preds = %35, %Vec_IntFree.exit21
  tail call void @free(ptr noundef nonnull %0) #17
  ret void
}